; Function Attrs: nounwind uwtable
define void @stbi__grow_buffer_unsafe(ptr noundef captures(none) %0) local_unnamed_addr #2 {
  %2 = getelementptr inbounds nuw i8, ptr %0, i64 18476
  %3 = getelementptr inbounds nuw i8, ptr %0, i64 18468
  %4 = getelementptr inbounds nuw i8, ptr %0, i64 18464
  %5 = load i32, ptr %2, align 4, !tbaa !151
  %6 = icmp eq i32 %5, 0
  br i1 %6, label %.split, label %.split.us

.split.us:                                        ; preds = %1
  %.promoted = load i32, ptr %3, align 4, !tbaa !152
  %smax = tail call i32 @llvm.smax.i32(i32 %.promoted, i32 17)
  %7 = add nuw i32 %smax, 7
  %8 = sub i32 %7, %.promoted
  %9 = and i32 %8, -8
  %10 = add i32 %.promoted, %9
  %11 = add i32 %10, 8
  store i32 %11, ptr %3, align 4, !tbaa !152
  br label %.loopexit

.splitthread-pre-split:                           ; preds = %.thread
  %.pr = load i32, ptr %2, align 4, !tbaa !151
  br label %.split

.split:                                           ; preds = %1, %.splitthread-pre-split
  %12 = phi i32 [ %.pr, %.splitthread-pre-split ], [ 0, %1 ]
  %.not = icmp eq i32 %12, 0
  br i1 %.not, label %13, label %.thread

13:                                               ; preds = %.split
  %14 = load ptr, ptr %0, align 8, !tbaa !77
  %15 = getelementptr inbounds nuw i8, ptr %14, i64 192
  %16 = load ptr, ptr %15, align 8, !tbaa !14
  %17 = getelementptr inbounds nuw i8, ptr %14, i64 200
  %18 = load ptr, ptr %17, align 8, !tbaa !16
  %19 = icmp ult ptr %16, %18
  br i1 %19, label %20, label %23

20:                                               ; preds = %13
  %21 = getelementptr inbounds nuw i8, ptr %16, i64 1
  store ptr %21, ptr %15, align 8, !tbaa !14
  %22 = load i8, ptr %16, align 1, !tbaa !21
  br label %53

23:                                               ; preds = %13
  %24 = getelementptr inbounds nuw i8, ptr %14, i64 48
  %25 = load i32, ptr %24, align 8, !tbaa !11
  %.not.i = icmp eq i32 %25, 0
  br i1 %.not.i, label %.thread, label %26

26:                                               ; preds = %23
  %27 = getelementptr inbounds nuw i8, ptr %14, i64 16
  %28 = load ptr, ptr %27, align 8, !tbaa !3
  %29 = getelementptr inbounds nuw i8, ptr %14, i64 40
  %30 = load ptr, ptr %29, align 8, !tbaa !19
  %31 = getelementptr inbounds nuw i8, ptr %14, i64 56
  %32 = getelementptr inbounds nuw i8, ptr %14, i64 52
  %33 = load i32, ptr %32, align 4, !tbaa !20
  %34 = tail call i32 %28(ptr noundef %30, ptr noundef nonnull %31, i32 noundef %33) #37
  %35 = load ptr, ptr %15, align 8, !tbaa !14
  %36 = getelementptr inbounds nuw i8, ptr %14, i64 208
  %37 = load ptr, ptr %36, align 8, !tbaa !13
  %38 = ptrtoint ptr %35 to i64
  %39 = ptrtoint ptr %37 to i64
  %40 = sub i64 %38, %39
  %41 = trunc i64 %40 to i32
  %42 = getelementptr inbounds nuw i8, ptr %14, i64 184
  %43 = load i32, ptr %42, align 8, !tbaa !12
  %44 = add nsw i32 %43, %41
  store i32 %44, ptr %42, align 8, !tbaa !12
  %45 = icmp eq i32 %34, 0
  br i1 %45, label %46, label %48

46:                                               ; preds = %26
  store i32 0, ptr %24, align 8, !tbaa !11
  %47 = getelementptr inbounds nuw i8, ptr %14, i64 57
  store i8 0, ptr %31, align 1, !tbaa !21
  br label %stbi__refill_buffer.exit.i

48:                                               ; preds = %26
  %49 = sext i32 %34 to i64
  %50 = getelementptr inbounds i8, ptr %31, i64 %49
  %.pre.i = load i8, ptr %31, align 1, !tbaa !21
  br label %stbi__refill_buffer.exit.i

stbi__refill_buffer.exit.i:                       ; preds = %48, %46
  %51 = phi i8 [ 0, %46 ], [ %.pre.i, %48 ]
  %.sink.i.i = phi ptr [ %47, %46 ], [ %50, %48 ]
  store ptr %.sink.i.i, ptr %17, align 8, !tbaa !16
  %52 = getelementptr inbounds nuw i8, ptr %14, i64 57
  store ptr %52, ptr %15, align 8, !tbaa !14
  br label %53

53:                                               ; preds = %stbi__refill_buffer.exit.i, %20
  %.0.i = phi i8 [ %22, %20 ], [ %51, %stbi__refill_buffer.exit.i ]
  %54 = icmp eq i8 %.0.i, -1
  br i1 %54, label %55, label %.thread

55:                                               ; preds = %53
  %56 = load ptr, ptr %0, align 8, !tbaa !77
  %57 = getelementptr inbounds nuw i8, ptr %56, i64 192
  %58 = load ptr, ptr %57, align 8, !tbaa !14
  %59 = getelementptr inbounds nuw i8, ptr %56, i64 200
  %60 = load ptr, ptr %59, align 8, !tbaa !16
  %61 = icmp ult ptr %58, %60
  br i1 %61, label %62, label %65

62:                                               ; preds = %55
  %63 = getelementptr inbounds nuw i8, ptr %58, i64 1
  store ptr %63, ptr %57, align 8, !tbaa !14
  %64 = load i8, ptr %58, align 1, !tbaa !21
  br label %stbi__get8.exit23.preheader

65:                                               ; preds = %55
  %66 = getelementptr inbounds nuw i8, ptr %56, i64 48
  %67 = load i32, ptr %66, align 8, !tbaa !11
  %.not.i18 = icmp eq i32 %67, 0
  br i1 %.not.i18, label %stbi__get8.exit23.preheader, label %68

68:                                               ; preds = %65
  %69 = getelementptr inbounds nuw i8, ptr %56, i64 16
  %70 = load ptr, ptr %69, align 8, !tbaa !3
  %71 = getelementptr inbounds nuw i8, ptr %56, i64 40
  %72 = load ptr, ptr %71, align 8, !tbaa !19
  %73 = getelementptr inbounds nuw i8, ptr %56, i64 56
  %74 = getelementptr inbounds nuw i8, ptr %56, i64 52
  %75 = load i32, ptr %74, align 4, !tbaa !20
  %76 = tail call i32 %70(ptr noundef %72, ptr noundef nonnull %73, i32 noundef %75) #37
  %77 = load ptr, ptr %57, align 8, !tbaa !14
  %78 = getelementptr inbounds nuw i8, ptr %56, i64 208
  %79 = load ptr, ptr %78, align 8, !tbaa !13
  %80 = ptrtoint ptr %77 to i64
  %81 = ptrtoint ptr %79 to i64
  %82 = sub i64 %80, %81
  %83 = trunc i64 %82 to i32
  %84 = getelementptr inbounds nuw i8, ptr %56, i64 184
  %85 = load i32, ptr %84, align 8, !tbaa !12
  %86 = add nsw i32 %85, %83
  store i32 %86, ptr %84, align 8, !tbaa !12
  %87 = icmp eq i32 %76, 0
  br i1 %87, label %88, label %90

88:                                               ; preds = %68
  store i32 0, ptr %66, align 8, !tbaa !11
  %89 = getelementptr inbounds nuw i8, ptr %56, i64 57
  store i8 0, ptr %73, align 1, !tbaa !21
  br label %stbi__refill_buffer.exit.i20

90:                                               ; preds = %68
  %91 = sext i32 %76 to i64
  %92 = getelementptr inbounds i8, ptr %73, i64 %91
  %.pre.i19 = load i8, ptr %73, align 1, !tbaa !21
  br label %stbi__refill_buffer.exit.i20

stbi__refill_buffer.exit.i20:                     ; preds = %90, %88
  %93 = phi i8 [ 0, %88 ], [ %.pre.i19, %90 ]
  %.sink.i.i21 = phi ptr [ %89, %88 ], [ %92, %90 ]
  store ptr %.sink.i.i21, ptr %59, align 8, !tbaa !16
  %94 = getelementptr inbounds nuw i8, ptr %56, i64 57
  store ptr %94, ptr %57, align 8, !tbaa !14
  br label %stbi__get8.exit23.preheader

stbi__get8.exit23.preheader:                      ; preds = %62, %65, %stbi__refill_buffer.exit.i20
  %.016.in.ph = phi i8 [ 0, %65 ], [ %93, %stbi__refill_buffer.exit.i20 ], [ %64, %62 ]
  br label %stbi__get8.exit23

stbi__get8.exit23:                                ; preds = %stbi__get8.exit23.backedge, %stbi__get8.exit23.preheader
  %.016.in = phi i8 [ %.016.in.ph, %stbi__get8.exit23.preheader ], [ %.016.in.be, %stbi__get8.exit23.backedge ]
  switch i8 %.016.in, label %135 [
    i8 -1, label %95
    i8 0, label %.thread
  ]

95:                                               ; preds = %stbi__get8.exit23
  %96 = load ptr, ptr %0, align 8, !tbaa !77
  %97 = getelementptr inbounds nuw i8, ptr %96, i64 192
  %98 = load ptr, ptr %97, align 8, !tbaa !14
  %99 = getelementptr inbounds nuw i8, ptr %96, i64 200
  %100 = load ptr, ptr %99, align 8, !tbaa !16
  %101 = icmp ult ptr %98, %100
  br i1 %101, label %102, label %105

102:                                              ; preds = %95
  %103 = getelementptr inbounds nuw i8, ptr %98, i64 1
  store ptr %103, ptr %97, align 8, !tbaa !14
  %104 = load i8, ptr %98, align 1, !tbaa !21
  br label %stbi__get8.exit23.backedge

stbi__get8.exit23.backedge:                       ; preds = %102, %105, %stbi__refill_buffer.exit.i26
  %.016.in.be = phi i8 [ %104, %102 ], [ %133, %stbi__refill_buffer.exit.i26 ], [ 0, %105 ]
  br label %stbi__get8.exit23, !llvm.loop !153

105:                                              ; preds = %95
  %106 = getelementptr inbounds nuw i8, ptr %96, i64 48
  %107 = load i32, ptr %106, align 8, !tbaa !11
  %.not.i24 = icmp eq i32 %107, 0
  br i1 %.not.i24, label %stbi__get8.exit23.backedge, label %108

108:                                              ; preds = %105
  %109 = getelementptr inbounds nuw i8, ptr %96, i64 16
  %110 = load ptr, ptr %109, align 8, !tbaa !3
  %111 = getelementptr inbounds nuw i8, ptr %96, i64 40
  %112 = load ptr, ptr %111, align 8, !tbaa !19
  %113 = getelementptr inbounds nuw i8, ptr %96, i64 56
  %114 = getelementptr inbounds nuw i8, ptr %96, i64 52
  %115 = load i32, ptr %114, align 4, !tbaa !20
  %116 = tail call i32 %110(ptr noundef %112, ptr noundef nonnull %113, i32 noundef %115) #37
  %117 = load ptr, ptr %97, align 8, !tbaa !14
  %118 = getelementptr inbounds nuw i8, ptr %96, i64 208
  %119 = load ptr, ptr %118, align 8, !tbaa !13
  %120 = ptrtoint ptr %117 to i64
  %121 = ptrtoint ptr %119 to i64
  %122 = sub i64 %120, %121
  %123 = trunc i64 %122 to i32
  %124 = getelementptr inbounds nuw i8, ptr %96, i64 184
  %125 = load i32, ptr %124, align 8, !tbaa !12
  %126 = add nsw i32 %125, %123
  store i32 %126, ptr %124, align 8, !tbaa !12
  %127 = icmp eq i32 %116, 0
  br i1 %127, label %128, label %130

128:                                              ; preds = %108
  store i32 0, ptr %106, align 8, !tbaa !11
  %129 = getelementptr inbounds nuw i8, ptr %96, i64 57
  store i8 0, ptr %113, align 1, !tbaa !21
  br label %stbi__refill_buffer.exit.i26

130:                                              ; preds = %108
  %131 = sext i32 %116 to i64
  %132 = getelementptr inbounds i8, ptr %113, i64 %131
  %.pre.i25 = load i8, ptr %113, align 1, !tbaa !21
  br label %stbi__refill_buffer.exit.i26

stbi__refill_buffer.exit.i26:                     ; preds = %130, %128
  %133 = phi i8 [ 0, %128 ], [ %.pre.i25, %130 ]
  %.sink.i.i27 = phi ptr [ %129, %128 ], [ %132, %130 ]
  store ptr %.sink.i.i27, ptr %99, align 8, !tbaa !16
  %134 = getelementptr inbounds nuw i8, ptr %96, i64 57
  store ptr %134, ptr %97, align 8, !tbaa !14
  br label %stbi__get8.exit23.backedge

135:                                              ; preds = %stbi__get8.exit23
  %136 = getelementptr inbounds nuw i8, ptr %0, i64 18472
  store i8 %.016.in, ptr %136, align 8, !tbaa !83
  store i32 1, ptr %2, align 4, !tbaa !151
  br label %.loopexit

.thread:                                          ; preds = %stbi__get8.exit23, %23, %.split, %53
  %.shrunk = phi i8 [ %.0.i, %53 ], [ 0, %.split ], [ 0, %23 ], [ -1, %stbi__get8.exit23 ]
  %137 = zext i8 %.shrunk to i32
  %138 = load i32, ptr %3, align 4, !tbaa !152
  %139 = sub nsw i32 24, %138
  %140 = shl i32 %137, %139
  %141 = load i32, ptr %4, align 8, !tbaa !154
  %142 = or i32 %140, %141
  store i32 %142, ptr %4, align 8, !tbaa !154
  %143 = add nsw i32 %138, 8
  store i32 %143, ptr %3, align 4, !tbaa !152
  %144 = icmp slt i32 %138, 17
  br i1 %144, label %.splitthread-pre-split, label %.loopexit, !llvm.loop !155

.loopexit:                                        ; preds = %.thread, %.split.us, %135
  ret void
}